; Function Attrs: mustprogress uwtable
define internal noundef i32 @_ZZN5arrow4util12_GLOBAL__N_118AsyncTaskGroupImpl7AddTaskESt10unique_ptrINS0_18AsyncTaskScheduler4TaskESt14default_deleteIS5_EEENK11WrapperTask4costEv(ptr nocapture noundef nonnull readonly align 8 dereferenceable(40) %this) unnamed_addr #0 align 2 {
entry:
  %target = getelementptr inbounds i8, ptr %this, i64 16
  %0 = load ptr, ptr %target, align 8
  %vtable = load ptr, ptr %0, align 8
  %vfn = getelementptr inbounds i8, ptr %vtable, i64 24
  %1 = load ptr, ptr %vfn, align 8
  %call2 = tail call noundef i32 %1(ptr noundef nonnull align 8 dereferenceable(16) %0)
  ret i32 %call2
}